target datalayout = "e-m:e-p270:32:32-p271:32:32-p272:64:64-i64:64-i128:128-f80:128-n8:16:32:64-S128"
target triple = "x86_64-pc-linux-gnu"

%"class.gmx::(anonymous namespace)::OptionsFilter" = type <{ %"class.gmx::OptionsVisitor", ptr, i32, i8, [3 x i8] }>
%"class.gmx::OptionsVisitor" = type { ptr }

@_ZTIN3gmx10OptionInfoE = external constant ptr
@_ZTIN3gmx18FileNameOptionInfoE = linkonce_odr constant { ptr, ptr, ptr } { ptr getelementptr inbounds (ptr, ptr @_ZTVN10__cxxabiv120__si_class_type_infoE, i64 2), ptr @_ZTSN3gmx18FileNameOptionInfoE, ptr @_ZTIN3gmx10OptionInfoE }, comdat, align 8

; Function Attrs: mustprogress nounwind uwtable
define linkonce_odr noundef ptr @_ZNK3gmx10OptionInfo6toTypeINS_18FileNameOptionInfoEEEPKT_v(ptr noundef nonnull align 8 dereferenceable(16) %0) #1 comdat align 2 {
  %2 = alloca ptr, align 8
  store ptr %0, ptr %2, align 8
  %3 = load ptr, ptr %2, align 8
  %4 = icmp eq ptr %3, null
  br i1 %4, label %7, label %5

5:                                                ; preds = %1
  %6 = call ptr @__dynamic_cast(ptr %3, ptr @_ZTIN3gmx10OptionInfoE, ptr @_ZTIN3gmx18FileNameOptionInfoE, i64 0) #11
  br label %8

7:                                                ; preds = %1
  br label %8

8:                                                ; preds = %7, %5
  %9 = phi ptr [ %6, %5 ], [ null, %7 ]
  ret ptr %9
}

; Function Attrs: mustprogress uwtable
define internal void @_ZN3gmx12_GLOBAL__N_113OptionsFilter11visitOptionERKNS_10OptionInfoE(ptr noundef nonnull align 8 dereferenceable(21) %0, ptr noundef nonnull align 8 dereferenceable(16) %1) unnamed_addr #0 align 2 {
  %3 = alloca ptr, align 8
  %4 = alloca ptr, align 8
  %5 = alloca ptr, align 8
  store ptr %0, ptr %3, align 8
  store ptr %1, ptr %4, align 8
  %6 = load ptr, ptr %3, align 8
  %7 = getelementptr inbounds %"class.gmx::(anonymous namespace)::OptionsFilter", ptr %6, i32 0, i32 3
  %8 = load i8, ptr %7, align 4
  %9 = trunc i8 %8 to i1
  br i1 %9, label %14, label %10

10:                                               ; preds = %2
  %11 = load ptr, ptr %4, align 8
  %12 = call noundef zeroext i1 @_ZNK3gmx10OptionInfo8isHiddenEv(ptr noundef nonnull align 8 dereferenceable(16) %11)
  br i1 %12, label %13, label %14

13:                                               ; preds = %10
  br label %81

14:                                               ; preds = %10, %2
  %15 = load ptr, ptr %4, align 8
  %16 = call noundef ptr @_ZNK3gmx10OptionInfo6toTypeINS_18FileNameOptionInfoEEEPKT_v(ptr noundef nonnull align 8 dereferenceable(16) %15)
  store ptr %16, ptr %5, align 8
  %17 = load ptr, ptr %5, align 8
  %18 = icmp ne ptr %17, null
  br i1 %18, label %19, label %34

19:                                               ; preds = %14
  %20 = load ptr, ptr %5, align 8
  %21 = call noundef zeroext i1 @_ZNK3gmx18FileNameOptionInfo11isInputFileEv(ptr noundef nonnull align 8 dereferenceable(16) %20)
  br i1 %21, label %22, label %34

22:                                               ; preds = %19
  %23 = getelementptr inbounds %"class.gmx::(anonymous namespace)::OptionsFilter", ptr %6, i32 0, i32 2
  %24 = load i32, ptr %23, align 8
  %25 = icmp eq i32 %24, 0
  br i1 %25, label %26, label %33

26:                                               ; preds = %22
  %27 = getelementptr inbounds %"class.gmx::(anonymous namespace)::OptionsFilter", ptr %6, i32 0, i32 1
  %28 = load ptr, ptr %27, align 8
  %29 = load ptr, ptr %4, align 8
  %30 = load ptr, ptr %28, align 8
  %31 = getelementptr inbounds ptr, ptr %30, i64 2
  %32 = load ptr, ptr %31, align 8
  call void %32(ptr noundef nonnull align 8 dereferenceable(8) %28, ptr noundef nonnull align 8 dereferenceable(16) %29)
  br label %33

33:                                               ; preds = %26, %22
  br label %81

34:                                               ; preds = %19, %14
  %35 = load ptr, ptr %5, align 8
  %36 = icmp ne ptr %35, null
  br i1 %36, label %37, label %52

37:                                               ; preds = %34
  %38 = load ptr, ptr %5, align 8
  %39 = call noundef zeroext i1 @_ZNK3gmx18FileNameOptionInfo17isInputOutputFileEv(ptr noundef nonnull align 8 dereferenceable(16) %38)
  br i1 %39, label %40, label %52

40:                                               ; preds = %37
  %41 = getelementptr inbounds %"class.gmx::(anonymous namespace)::OptionsFilter", ptr %6, i32 0, i32 2
  %42 = load i32, ptr %41, align 8
  %43 = icmp eq i32 %42, 1
  br i1 %43, label %44, label %51

44:                                               ; preds = %40
  %45 = getelementptr inbounds %"class.gmx::(anonymous namespace)::OptionsFilter", ptr %6, i32 0, i32 1
  %46 = load ptr, ptr %45, align 8
  %47 = load ptr, ptr %4, align 8
  %48 = load ptr, ptr %46, align 8
  %49 = getelementptr inbounds ptr, ptr %48, i64 2
  %50 = load ptr, ptr %49, align 8
  call void %50(ptr noundef nonnull align 8 dereferenceable(8) %46, ptr noundef nonnull align 8 dereferenceable(16) %47)
  br label %51

51:                                               ; preds = %44, %40
  br label %81

52:                                               ; preds = %37, %34
  %53 = load ptr, ptr %5, align 8
  %54 = icmp ne ptr %53, null
  br i1 %54, label %55, label %70

55:                                               ; preds = %52
  %56 = load ptr, ptr %5, align 8
  %57 = call noundef zeroext i1 @_ZNK3gmx18FileNameOptionInfo12isOutputFileEv(ptr noundef nonnull align 8 dereferenceable(16) %56)
  br i1 %57, label %58, label %70

58:                                               ; preds = %55
  %59 = getelementptr inbounds %"class.gmx::(anonymous namespace)::OptionsFilter", ptr %6, i32 0, i32 2
  %60 = load i32, ptr %59, align 8
  %61 = icmp eq i32 %60, 2
  br i1 %61, label %62, label %69

62:                                               ; preds = %58
  %63 = getelementptr inbounds %"class.gmx::(anonymous namespace)::OptionsFilter", ptr %6, i32 0, i32 1
  %64 = load ptr, ptr %63, align 8
  %65 = load ptr, ptr %4, align 8
  %66 = load ptr, ptr %64, align 8
  %67 = getelementptr inbounds ptr, ptr %66, i64 2
  %68 = load ptr, ptr %67, align 8
  call void %68(ptr noundef nonnull align 8 dereferenceable(8) %64, ptr noundef nonnull align 8 dereferenceable(16) %65)
  br label %69

69:                                               ; preds = %62, %58
  br label %81

70:                                               ; preds = %55, %52
  %71 = getelementptr inbounds %"class.gmx::(anonymous namespace)::OptionsFilter", ptr %6, i32 0, i32 2
  %72 = load i32, ptr %71, align 8
  %73 = icmp eq i32 %72, 3
  br i1 %73, label %74, label %81

74:                                               ; preds = %70
  %75 = getelementptr inbounds %"class.gmx::(anonymous namespace)::OptionsFilter", ptr %6, i32 0, i32 1
  %76 = load ptr, ptr %75, align 8
  %77 = load ptr, ptr %4, align 8
  %78 = load ptr, ptr %76, align 8
  %79 = getelementptr inbounds ptr, ptr %78, i64 2
  %80 = load ptr, ptr %79, align 8
  call void %80(ptr noundef nonnull align 8 dereferenceable(8) %76, ptr noundef nonnull align 8 dereferenceable(16) %77)
  br label %81

81:                                               ; preds = %74, %70, %69, %51, %33, %13
  ret void
}