; Function Attrs: mustprogress uwtable
define internal void @_ZN3gmx12_GLOBAL__N_113OptionsFilter11visitOptionERKNS_10OptionInfoE(ptr nocapture noundef nonnull readonly align 8 dereferenceable(21) %0, ptr noundef nonnull align 8 dereferenceable(16) %1) unnamed_addr #0 align 2 {
  %3 = getelementptr inbounds i8, ptr %0, i64 20
  %4 = load i8, ptr %3, align 4
  %5 = trunc i8 %4 to i1
  br i1 %5, label %8, label %6

6:                                                ; preds = %2
  %7 = tail call noundef zeroext i1 @_ZNK3gmx10OptionInfo8isHiddenEv(ptr noundef nonnull align 8 dereferenceable(16) %1)
  br i1 %7, label %35, label %8

8:                                                ; preds = %6, %2
  %9 = tail call noundef ptr @__dynamic_cast(ptr nonnull %1, ptr nonnull @_ZTIN3gmx10OptionInfoE, ptr nonnull @_ZTIN3gmx18FileNameOptionInfoE, i64 0) #15
  %.not = icmp eq ptr %9, null
  br i1 %.not, label %.critedge13, label %10

10:                                               ; preds = %8
  %11 = tail call noundef zeroext i1 @_ZNK3gmx18FileNameOptionInfo11isInputFileEv(ptr noundef nonnull align 8 dereferenceable(16) %9)
  br i1 %11, label %12, label %16

12:                                               ; preds = %10
  %13 = getelementptr inbounds i8, ptr %0, i64 16
  %14 = load i32, ptr %13, align 8
  %15 = icmp eq i32 %14, 0
  br i1 %15, label %.sink.split, label %35

16:                                               ; preds = %10
  %17 = tail call noundef zeroext i1 @_ZNK3gmx18FileNameOptionInfo17isInputOutputFileEv(ptr noundef nonnull align 8 dereferenceable(16) %9)
  br i1 %17, label %18, label %.critedge

18:                                               ; preds = %16
  %19 = getelementptr inbounds i8, ptr %0, i64 16
  %20 = load i32, ptr %19, align 8
  %21 = icmp eq i32 %20, 1
  br i1 %21, label %.sink.split, label %35

.critedge:                                        ; preds = %16
  %22 = tail call noundef zeroext i1 @_ZNK3gmx18FileNameOptionInfo12isOutputFileEv(ptr noundef nonnull align 8 dereferenceable(16) %9)
  br i1 %22, label %23, label %.critedge13

23:                                               ; preds = %.critedge
  %24 = getelementptr inbounds i8, ptr %0, i64 16
  %25 = load i32, ptr %24, align 8
  %26 = icmp eq i32 %25, 2
  br i1 %26, label %.sink.split, label %35

.critedge13:                                      ; preds = %8, %.critedge
  %27 = getelementptr inbounds i8, ptr %0, i64 16
  %28 = load i32, ptr %27, align 8
  %29 = icmp eq i32 %28, 3
  br i1 %29, label %.sink.split, label %35

.sink.split:                                      ; preds = %.critedge13, %23, %18, %12
  %30 = getelementptr inbounds i8, ptr %0, i64 8
  %31 = load ptr, ptr %30, align 8
  %32 = load ptr, ptr %31, align 8
  %33 = getelementptr inbounds i8, ptr %32, i64 16
  %34 = load ptr, ptr %33, align 8
  tail call void %34(ptr noundef nonnull align 8 dereferenceable(8) %31, ptr noundef nonnull align 8 dereferenceable(16) %1)
  br label %35

35:                                               ; preds = %.sink.split, %23, %18, %12, %6, %.critedge13
  ret void
}